target datalayout = "e-m:e-p270:32:32-p271:32:32-p272:64:64-i64:64-i128:128-f80:128-n8:16:32:64-S128"
target triple = "x86_64-pc-linux-gnu"

%struct._cmsStage_struct = type { ptr, i32, i32, i32, i32, ptr, ptr, ptr, ptr, ptr }
%struct._cmsPipeline_struct = type { ptr, i32, i32, ptr, ptr, ptr, ptr, ptr, ptr, i32 }

; Function Attrs: nounwind uwtable
define internal void @_LUTevalFloat(ptr noundef %0, ptr noundef %1, ptr noundef %2) #0 {
  %4 = alloca ptr, align 8
  %5 = alloca ptr, align 8
  %6 = alloca ptr, align 8
  %7 = alloca ptr, align 8
  %8 = alloca ptr, align 8
  %9 = alloca [2 x [128 x float]], align 16
  %10 = alloca i32, align 4
  %11 = alloca i32, align 4
  store ptr %0, ptr %4, align 8
  store ptr %1, ptr %5, align 8
  store ptr %2, ptr %6, align 8
  %12 = load ptr, ptr %6, align 8
  store ptr %12, ptr %7, align 8
  store i32 0, ptr %10, align 4
  %13 = load i32, ptr %10, align 4
  %14 = sext i32 %13 to i64
  %15 = getelementptr inbounds [2 x [128 x float]], ptr %9, i64 0, i64 %14
  %16 = getelementptr inbounds [128 x float], ptr %15, i64 0, i64 0
  %17 = load ptr, ptr %4, align 8
  %18 = load ptr, ptr %7, align 8
  %19 = getelementptr inbounds %struct._cmsPipeline_struct, ptr %18, i32 0, i32 1
  %20 = load i32, ptr %19, align 8
  %21 = zext i32 %20 to i64
  %22 = mul i64 %21, 4
  call void @llvm.memmove.p0.p0.i64(ptr align 16 %16, ptr align 4 %17, i64 %22, i1 false)
  %23 = load ptr, ptr %7, align 8
  %24 = getelementptr inbounds %struct._cmsPipeline_struct, ptr %23, i32 0, i32 0
  %25 = load ptr, ptr %24, align 8
  store ptr %25, ptr %8, align 8
  br label %26

26:                                               ; preds = %45, %3
  %27 = load ptr, ptr %8, align 8
  %28 = icmp ne ptr %27, null
  br i1 %28, label %29, label %49

29:                                               ; preds = %26
  %30 = load i32, ptr %10, align 4
  %31 = xor i32 %30, 1
  store i32 %31, ptr %11, align 4
  %32 = load ptr, ptr %8, align 8
  %33 = getelementptr inbounds %struct._cmsStage_struct, ptr %32, i32 0, i32 5
  %34 = load ptr, ptr %33, align 8
  %35 = load i32, ptr %10, align 4
  %36 = sext i32 %35 to i64
  %37 = getelementptr inbounds [2 x [128 x float]], ptr %9, i64 0, i64 %36
  %38 = getelementptr inbounds [128 x float], ptr %37, i64 0, i64 0
  %39 = load i32, ptr %11, align 4
  %40 = sext i32 %39 to i64
  %41 = getelementptr inbounds [2 x [128 x float]], ptr %9, i64 0, i64 %40
  %42 = getelementptr inbounds [128 x float], ptr %41, i64 0, i64 0
  %43 = load ptr, ptr %8, align 8
  call void %34(ptr noundef %38, ptr noundef %42, ptr noundef %43)
  %44 = load i32, ptr %11, align 4
  store i32 %44, ptr %10, align 4
  br label %45

45:                                               ; preds = %29
  %46 = load ptr, ptr %8, align 8
  %47 = getelementptr inbounds %struct._cmsStage_struct, ptr %46, i32 0, i32 9
  %48 = load ptr, ptr %47, align 8
  store ptr %48, ptr %8, align 8
  br label %26, !llvm.loop !42

49:                                               ; preds = %26
  %50 = load ptr, ptr %5, align 8
  %51 = load i32, ptr %10, align 4
  %52 = sext i32 %51 to i64
  %53 = getelementptr inbounds [2 x [128 x float]], ptr %9, i64 0, i64 %52
  %54 = getelementptr inbounds [128 x float], ptr %53, i64 0, i64 0
  %55 = load ptr, ptr %7, align 8
  %56 = getelementptr inbounds %struct._cmsPipeline_struct, ptr %55, i32 0, i32 2
  %57 = load i32, ptr %56, align 4
  %58 = zext i32 %57 to i64
  %59 = mul i64 %58, 4
  call void @llvm.memmove.p0.p0.i64(ptr align 4 %50, ptr align 16 %54, i64 %59, i1 false)
  ret void
}