; Function Attrs: nounwind uwtable
define internal void @_LUTevalFloat(ptr nocapture noundef readonly %0, ptr nocapture noundef writeonly %1, ptr nocapture noundef readonly %2) #0 {
  %4 = alloca [2 x [128 x float]], align 16
  %5 = getelementptr inbounds i8, ptr %2, i64 8
  %6 = load i32, ptr %5, align 8
  %7 = zext i32 %6 to i64
  %8 = shl nuw nsw i64 %7, 2
  call void @llvm.memcpy.p0.p0.i64(ptr nonnull align 16 %4, ptr align 4 %0, i64 %8, i1 false)
  %.016 = load ptr, ptr %2, align 8
  %.not17 = icmp eq ptr %.016, null
  br i1 %.not17, label %._crit_edge, label %.lr.ph

.lr.ph:                                           ; preds = %3, %.lr.ph
  %.019 = phi ptr [ %.0, %.lr.ph ], [ %.016, %3 ]
  %.01518 = phi i32 [ %9, %.lr.ph ], [ 0, %3 ]
  %9 = xor i32 %.01518, 1
  %10 = getelementptr inbounds i8, ptr %.019, i64 24
  %11 = load ptr, ptr %10, align 8
  %12 = zext nneg i32 %.01518 to i64
  %13 = getelementptr inbounds [2 x [128 x float]], ptr %4, i64 0, i64 %12
  %14 = zext nneg i32 %9 to i64
  %15 = getelementptr inbounds [2 x [128 x float]], ptr %4, i64 0, i64 %14
  call void %11(ptr noundef nonnull %13, ptr noundef nonnull %15, ptr noundef nonnull %.019) #18
  %16 = getelementptr inbounds i8, ptr %.019, i64 56
  %.0 = load ptr, ptr %16, align 8
  %.not = icmp eq ptr %.0, null
  br i1 %.not, label %._crit_edge.loopexit, label %.lr.ph, !llvm.loop !46

._crit_edge.loopexit:                             ; preds = %.lr.ph
  %17 = zext nneg i32 %9 to i64
  br label %._crit_edge

._crit_edge:                                      ; preds = %3, %._crit_edge.loopexit
  %.015.lcssa = phi i64 [ %17, %._crit_edge.loopexit ], [ 0, %3 ]
  %18 = getelementptr inbounds [2 x [128 x float]], ptr %4, i64 0, i64 %.015.lcssa
  %19 = getelementptr inbounds i8, ptr %2, i64 12
  %20 = load i32, ptr %19, align 4
  %21 = zext i32 %20 to i64
  %22 = shl nuw nsw i64 %21, 2
  call void @llvm.memcpy.p0.p0.i64(ptr align 4 %1, ptr nonnull align 16 %18, i64 %22, i1 false)
  ret void
}